target datalayout = "e-m:e-p270:32:32-p271:32:32-p272:64:64-i64:64-i128:128-f80:128-n8:16:32:64-S128"
target triple = "x86_64-unknown-linux-gnu"

%"class.icu_75::UObject" = type { ptr }
%"class.icu_75::StringPiece" = type <{ ptr, i32, [4 x i8] }>
%"class.icu_75::(anonymous namespace)::AliasReplacer" = type { ptr, ptr, ptr, ptr, %"class.icu_75::UVector", ptr }
%"class.icu_75::UVector" = type { %"class.icu_75::UObject", i32, i32, ptr, ptr, ptr }
%"class.icu_75::CharStringMap" = type { ptr }
%"class.icu_75::(anonymous namespace)::AliasData" = type { [8 x i8], %"class.icu_75::CharStringMap", %"class.icu_75::CharStringMap", %"class.icu_75::CharStringMap", %"class.icu_75::CharStringMap", %"class.icu_75::CharStringMap", ptr }

@.str.194 = private unnamed_addr constant [5 x i8] c"zzzz\00", align 1

; Function Attrs: mustprogress uwtable
define linkonce_odr noundef ptr @_ZNK6icu_7513CharStringMap3getEPKc(ptr noundef nonnull align 8 dereferenceable(8) %this, ptr noundef %key) #1 comdat align 2 {
entry:
  %this.addr = alloca ptr, align 8
  %key.addr = alloca ptr, align 8
  store ptr %this, ptr %this.addr, align 8
  store ptr %key, ptr %key.addr, align 8
  %this1 = load ptr, ptr %this.addr, align 8
  %map = getelementptr inbounds %"class.icu_75::CharStringMap", ptr %this1, i32 0, i32 0
  %0 = load ptr, ptr %map, align 8
  %1 = load ptr, ptr %key.addr, align 8
  %call = call ptr @uhash_get_75(ptr noundef %0, ptr noundef %1)
  ret ptr %call
}

; Function Attrs: mustprogress nounwind uwtable
define linkonce_odr noundef ptr @_ZNK6icu_7511StringPiece4dataEv(ptr noundef nonnull align 8 dereferenceable(12) %this) #0 comdat align 2 {
entry:
  %this.addr = alloca ptr, align 8
  store ptr %this, ptr %this.addr, align 8
  %this1 = load ptr, ptr %this.addr, align 8
  %ptr_ = getelementptr inbounds %"class.icu_75::StringPiece", ptr %this1, i32 0, i32 0
  %0 = load ptr, ptr %ptr_, align 8
  ret ptr %0
}

; Function Attrs: mustprogress nounwind uwtable
define internal noundef nonnull align 8 dereferenceable(8) ptr @_ZNK6icu_7512_GLOBAL__N_19AliasData14subdivisionMapEv(ptr noundef nonnull align 8 dereferenceable(56) %this) #0 align 2 {
entry:
  %this.addr = alloca ptr, align 8
  store ptr %this, ptr %this.addr, align 8
  %this1 = load ptr, ptr %this.addr, align 8
  %subdivision = getelementptr inbounds %"class.icu_75::(anonymous namespace)::AliasData", ptr %this1, i32 0, i32 5
  ret ptr %subdivision
}

; Function Attrs: mustprogress nounwind uwtable
define internal noundef signext i8 @_ZL9U_FAILURE10UErrorCode(i32 noundef %code) #0 {
entry:
  %code.addr = alloca i32, align 4
  store i32 %code, ptr %code.addr, align 4
  %0 = load i32, ptr %code.addr, align 4
  %cmp = icmp sgt i32 %0, 0
  %conv = zext i1 %cmp to i8
  ret i8 %conv
}

; Function Attrs: mustprogress uwtable
define internal noundef zeroext i1 @_ZN6icu_7512_GLOBAL__N_113AliasReplacer18replaceSubdivisionENS_11StringPieceERNS_10CharStringER10UErrorCode(ptr noundef nonnull align 8 dereferenceable(80) %this, ptr %subdivision.coerce0, i32 %subdivision.coerce1, ptr noundef nonnull align 8 dereferenceable(60) %output, ptr noundef nonnull align 4 dereferenceable(4) %status) #1 align 2 {
entry:
  %retval = alloca i1, align 1
  %subdivision = alloca %"class.icu_75::StringPiece", align 8
  %this.addr = alloca ptr, align 8
  %output.addr = alloca ptr, align 8
  %status.addr = alloca ptr, align 8
  %replacement = alloca ptr, align 8
  %firstSpace = alloca ptr, align 8
  %len = alloca i64, align 8
  %0 = getelementptr inbounds { ptr, i32 }, ptr %subdivision, i32 0, i32 0
  store ptr %subdivision.coerce0, ptr %0, align 8
  %1 = getelementptr inbounds { ptr, i32 }, ptr %subdivision, i32 0, i32 1
  store i32 %subdivision.coerce1, ptr %1, align 8
  store ptr %this, ptr %this.addr, align 8
  store ptr %output, ptr %output.addr, align 8
  store ptr %status, ptr %status.addr, align 8
  %this1 = load ptr, ptr %this.addr, align 8
  %2 = load ptr, ptr %status.addr, align 8
  %3 = load i32, ptr %2, align 4
  %call = call noundef signext i8 @_ZL9U_FAILURE10UErrorCode(i32 noundef %3)
  %tobool = icmp ne i8 %call, 0
  br i1 %tobool, label %if.then, label %if.end

if.then:                                          ; preds = %entry
  store i1 false, ptr %retval, align 1
  br label %return

if.end:                                           ; preds = %entry
  %data = getelementptr inbounds %"class.icu_75::(anonymous namespace)::AliasReplacer", ptr %this1, i32 0, i32 5
  %4 = load ptr, ptr %data, align 8
  %call2 = call noundef nonnull align 8 dereferenceable(8) ptr @_ZNK6icu_7512_GLOBAL__N_19AliasData14subdivisionMapEv(ptr noundef nonnull align 8 dereferenceable(56) %4)
  %call3 = call noundef ptr @_ZNK6icu_7511StringPiece4dataEv(ptr noundef nonnull align 8 dereferenceable(12) %subdivision)
  %call4 = call noundef ptr @_ZNK6icu_7513CharStringMap3getEPKc(ptr noundef nonnull align 8 dereferenceable(8) %call2, ptr noundef %call3)
  store ptr %call4, ptr %replacement, align 8
  %5 = load ptr, ptr %replacement, align 8
  %cmp = icmp ne ptr %5, null
  br i1 %cmp, label %if.then5, label %if.end18

if.then5:                                         ; preds = %if.end
  %6 = load ptr, ptr %replacement, align 8
  %call6 = call noundef ptr @strchr(ptr noundef %6, i32 noundef 32) #13
  store ptr %call6, ptr %firstSpace, align 8
  %7 = load ptr, ptr %firstSpace, align 8
  %cmp7 = icmp ne ptr %7, null
  br i1 %cmp7, label %cond.true, label %cond.false

cond.true:                                        ; preds = %if.then5
  %8 = load ptr, ptr %firstSpace, align 8
  %9 = load ptr, ptr %replacement, align 8
  %sub.ptr.lhs.cast = ptrtoint ptr %8 to i64
  %sub.ptr.rhs.cast = ptrtoint ptr %9 to i64
  %sub.ptr.sub = sub i64 %sub.ptr.lhs.cast, %sub.ptr.rhs.cast
  br label %cond.end

cond.false:                                       ; preds = %if.then5
  %10 = load ptr, ptr %replacement, align 8
  %call8 = call i64 @strlen(ptr noundef %10) #13
  br label %cond.end

cond.end:                                         ; preds = %cond.false, %cond.true
  %cond = phi i64 [ %sub.ptr.sub, %cond.true ], [ %call8, %cond.false ]
  store i64 %cond, ptr %len, align 8
  %11 = load i64, ptr %len, align 8
  %cmp9 = icmp ule i64 2, %11
  br i1 %cmp9, label %land.lhs.true, label %if.end17

land.lhs.true:                                    ; preds = %cond.end
  %12 = load i64, ptr %len, align 8
  %cmp10 = icmp ule i64 %12, 8
  br i1 %cmp10, label %if.then11, label %if.end17

if.then11:                                        ; preds = %land.lhs.true
  %13 = load ptr, ptr %output.addr, align 8
  %14 = load ptr, ptr %replacement, align 8
  %15 = load i64, ptr %len, align 8
  %conv = trunc i64 %15 to i32
  %16 = load ptr, ptr %status.addr, align 8
  %call12 = call noundef nonnull align 8 dereferenceable(60) ptr @_ZN6icu_7510CharString6appendEPKciR10UErrorCode(ptr noundef nonnull align 8 dereferenceable(60) %13, ptr noundef %14, i32 noundef %conv, ptr noundef nonnull align 4 dereferenceable(4) %16)
  %17 = load i64, ptr %len, align 8
  %cmp13 = icmp eq i64 2, %17
  br i1 %cmp13, label %if.then14, label %if.end16

if.then14:                                        ; preds = %if.then11
  %18 = load ptr, ptr %output.addr, align 8
  %19 = load ptr, ptr %status.addr, align 8
  %call15 = call noundef nonnull align 8 dereferenceable(60) ptr @_ZN6icu_7510CharString6appendEPKciR10UErrorCode(ptr noundef nonnull align 8 dereferenceable(60) %18, ptr noundef @.str.194, i32 noundef 4, ptr noundef nonnull align 4 dereferenceable(4) %19)
  br label %if.end16

if.end16:                                         ; preds = %if.then14, %if.then11
  br label %if.end17

if.end17:                                         ; preds = %if.end16, %land.lhs.true, %cond.end
  store i1 true, ptr %retval, align 1
  br label %return

if.end18:                                         ; preds = %if.end
  store i1 false, ptr %retval, align 1
  br label %return

return:                                           ; preds = %if.end18, %if.end17, %if.then
  %20 = load i1, ptr %retval, align 1
  ret i1 %20
}