; Function Attrs: mustprogress uwtable
define internal fastcc noundef zeroext i1 @_ZN6icu_7512_GLOBAL__N_113AliasReplacer18replaceSubdivisionENS_11StringPieceERNS_10CharStringER10UErrorCode(ptr nocapture readonly %this.72.val, ptr %subdivision.coerce0, ptr noundef nonnull align 8 dereferenceable(60) %output, ptr noundef nonnull align 4 dereferenceable(4) %status) unnamed_addr #1 align 2 {
entry:
  %0 = load i32, ptr %status, align 4
  %cmp.i = icmp slt i32 %0, 1
  br i1 %cmp.i, label %if.end, label %return

if.end:                                           ; preds = %entry
  %subdivision.i = getelementptr inbounds i8, ptr %this.72.val, i64 40
  %1 = load ptr, ptr %subdivision.i, align 8
  %call.i = tail call noundef ptr @uhash_get_75(ptr noundef %1, ptr noundef %subdivision.coerce0)
  %cmp.not = icmp eq ptr %call.i, null
  br i1 %cmp.not, label %return, label %if.then5

if.then5:                                         ; preds = %if.end
  %call6 = tail call noundef ptr @strchr(ptr noundef nonnull dereferenceable(1) %call.i, i32 noundef 32) #23
  %cmp7.not = icmp eq ptr %call6, null
  br i1 %cmp7.not, label %cond.false, label %cond.true

cond.true:                                        ; preds = %if.then5
  %sub.ptr.lhs.cast = ptrtoint ptr %call6 to i64
  %sub.ptr.rhs.cast = ptrtoint ptr %call.i to i64
  %sub.ptr.sub = sub i64 %sub.ptr.lhs.cast, %sub.ptr.rhs.cast
  br label %cond.end

cond.false:                                       ; preds = %if.then5
  %call8 = tail call i64 @strlen(ptr noundef nonnull dereferenceable(1) %call.i) #23
  br label %cond.end

cond.end:                                         ; preds = %cond.false, %cond.true
  %cond = phi i64 [ %sub.ptr.sub, %cond.true ], [ %call8, %cond.false ]
  %2 = add i64 %cond, -2
  %or.cond = icmp ult i64 %2, 7
  br i1 %or.cond, label %if.then11, label %return

if.then11:                                        ; preds = %cond.end
  %conv = trunc i64 %cond to i32
  %call12 = tail call noundef nonnull align 8 dereferenceable(60) ptr @_ZN6icu_7510CharString6appendEPKciR10UErrorCode(ptr noundef nonnull align 8 dereferenceable(60) %output, ptr noundef nonnull %call.i, i32 noundef %conv, ptr noundef nonnull align 4 dereferenceable(4) %status)
  %cmp13 = icmp eq i64 %cond, 2
  br i1 %cmp13, label %if.then14, label %return

if.then14:                                        ; preds = %if.then11
  %call15 = tail call noundef nonnull align 8 dereferenceable(60) ptr @_ZN6icu_7510CharString6appendEPKciR10UErrorCode(ptr noundef nonnull align 8 dereferenceable(60) %output, ptr noundef nonnull @.str.194, i32 noundef 4, ptr noundef nonnull align 4 dereferenceable(4) %status)
  br label %return

return:                                           ; preds = %if.end, %cond.end, %if.then14, %if.then11, %entry
  %retval.0 = phi i1 [ false, %entry ], [ true, %if.then11 ], [ true, %if.then14 ], [ true, %cond.end ], [ false, %if.end ]
  ret i1 %retval.0
}